(dp1
S'url'
p2
S'https://servicios.pami.org.ar/trazaenagr.WebService?wsdl'
p3
sS'services'
p4
(dp5
VIWebServiceSenasa
p6
(dp7
S'documentation'
p8
S''
sS'ports'
p9
(dp10
VIWebServiceSenasaPort
p11
(dp12
S'port_type_name'
p13
S'IWebServiceSenasaPortType'
p14
sS'operations'
p15
(dp16
VsendAlertaTransacc
p17
(dp18
S'name'
p19
g17
sg8
V
sS'header'
p20
NsS'parts'
p21
(dp22
S'input_header'
p23
NsS'input_body'
p24
NsS'output_header'
p25
NsS'output_body'
p26
NssS'output'
p27
(dp28
S'sendAlertaTransaccResponse'
p29
ccopy_reg
_reconstructor
p30
(cpysimplesoap.simplexml
OrderedDict
p31
c__builtin__
dict
p32
(dp33
Vreturn
p34
g30
(g31
g32
(dp35
Vresultado
p36
c__builtin__
bool
p37
sVerrores
p38
(lp39
g30
(g31
g32
(dp40
Vd_error
p41
c__builtin__
unicode
p42
sVc_error
p43
g42
stRp44
(dp45
S'array'
p46
I01
sS'_OrderedDict__keys'
p47
(lp48
g43
ag41
asbasVcodigoTransaccion
p49
g42
stRp50
(dp51
g46
I00
sg47
(lp52
g49
ag38
ag36
asbstRp53
(dp54
g46
I00
sg47
(lp55
g34
asbssS'input'
p56
(dp57
S'sendAlertaTransacc'
p58
(lp59
g30
(g31
g32
(dp60
Varg0
p61
g42
sVarg1
p62
g42
sVarg2
p63
c__builtin__
long
p64
stRp65
(dp66
g46
I01
sg47
(lp67
g61
ag62
ag63
asbasssVgetTransaccionesAlertadas
p68
(dp69
g19
g68
sg8
V
sg20
Nsg21
(dp70
g23
Nsg24
Nsg25
Nsg26
Nssg27
(dp71
S'getTransaccionesAlertadasResponse'
p72
g30
(g31
g32
(dp73
Vreturn
p74
(lp75
g30
(g31
g32
(dp76
g36
g37
sVlist
p77
g30
(g31
g32
(dp78
Vn_manifiesto
p79
g42
sVd_agente_informador
p80
g42
sVd_motivo_destruccion
p81
g42
sVcantidad
p82
cdecimal
Decimal
p83
sVcuit
p84
g42
sVn_serie
p85
g42
sVn_remito
p86
g42
sVn_vale_compra
p87
g42
sVd_evento
p88
g42
sVd_producto
p89
g42
sVf_vencimiento
p90
cdatetime
datetime
p91
sVprovincia
p92
g42
sVf_operacion
p93
g91
sVdireccion
p94
g42
sVn_cai
p95
g42
sVid_transaccion
p96
g64
sVd_agente_destino
p97
g42
sVen_transporte
p98
g42
sVn_cae
p99
g42
sVn_lote
p100
g42
sVn_postal
p101
g42
sVobservaciones
p102
g42
sVnumero
p103
g64
sVid_unidad
p104
g42
sVapellidoNombres
p105
g42
sVf_transaccion
p106
g91
sVf_elaboracion
p107
g91
sVd_unidad
p108
g42
sVd_agente_origen
p109
g42
sVd_estado_transaccion
p110
g42
sVid_transaccion_global
p111
g64
sVmotivo_devolucion
p112
g42
sVcod_producto
p113
g42
sVlocalidad
p114
g42
sVd_tipo_transaccion
p115
g42
sVd_envase
p116
g42
stRp117
(dp118
g46
I00
sg47
(lp119
g105
ag82
ag113
ag84
ag97
ag80
ag109
ag116
ag110
ag88
ag81
ag89
ag115
ag108
ag94
ag98
ag107
ag93
ag106
ag90
ag96
ag111
ag104
ag114
ag112
ag99
ag95
ag100
ag79
ag101
ag86
ag85
ag87
ag103
ag102
ag92
asbsg38
g39
sg49
g42
stRp120
(dp121
g46
I01
sg47
(lp122
g49
ag38
ag36
ag77
asbastRp123
(dp124
g46
I00
sg47
(lp125
g74
asbssg56
(dp126
S'getTransaccionesAlertadas'
p127
g30
(g31
g32
(dp128
Varg8
p129
g42
sVarg9
p130
g42
sVarg0
p131
g42
sVarg1
p132
g42
sVarg2
p133
g42
sVarg3
p134
g42
sVarg4
p135
g42
sVarg5
p136
g42
sVarg6
p137
g42
sVarg7
p138
g42
sVarg12
p139
g42
sVarg13
p140
g42
sVarg10
p141
g42
sVarg11
p142
g42
sVarg16
p143
g42
sVarg17
p144
g64
sVarg14
p145
g42
sVarg15
p146
g42
sVarg18
p147
g64
stRp148
(dp149
g46
I00
sg47
(lp150
g131
ag132
ag133
ag134
ag135
ag136
ag137
ag138
ag129
ag130
ag141
ag142
ag139
ag140
ag145
ag146
ag143
ag144
ag147
asbsssVsaveTransacciones
p151
(dp152
g19
g151
sg8
V
sg20
Nsg21
(dp153
g23
Nsg24
Nsg25
Nsg26
Nssg27
(dp154
S'saveTransaccionesResponse'
p155
g30
(g31
g32
(dp156
Vreturn
p157
g50
stRp158
(dp159
g46
I00
sg47
(lp160
g157
asbssg56
(dp161
S'saveTransacciones'
p162
g30
(g31
g32
(dp163
Varg0
p164
(lp165
g30
(g31
g32
(dp166
Vn_manifiesto
p167
g42
sVn_lote
p168
g42
sVn_remito
p169
g42
sVn_postal
p170
g42
sVcuit
p171
g42
sVgln_origen
p172
g42
sVobservaciones
p173
g42
sVid_motivo_destruccion
p174
g64
sVn_serie
p175
g42
sVnumero
p176
g64
sVgln_destino
p177
g42
sVid_evento
p178
g64
sVn_vale_compra
p179
g42
sVf_vto
p180
g42
sVf_elaboracion
p181
g42
sVprovincia
p182
g64
sVf_operacion
p183
g42
sVdireccion
p184
g42
sVn_cai
p185
g42
sVmotivo_devolucion
p186
g42
sVcod_producto
p187
g42
sVlocalidad
p188
g64
sVen_transporte
p189
g37
sVapellidoNombres
p190
g42
sVn_cantidad
p191
g83
sVn_cae
p192
g42
stRp193
(dp194
g46
I01
sg47
(lp195
g190
ag187
ag171
ag184
ag189
ag181
ag183
ag180
ag177
ag172
ag178
ag174
ag188
ag186
ag192
ag185
ag191
ag168
ag167
ag170
ag169
ag175
ag179
ag176
ag173
ag182
asbasVarg1
p196
g42
sVarg2
p197
g42
stRp198
(dp199
g46
I00
sg47
(lp200
g164
ag196
ag197
asbsssVsendConfirmaTransacc
p201
(dp202
g19
g201
sg8
V
sg20
Nsg21
(dp203
g23
Nsg24
Nsg25
Nsg26
Nssg27
(dp204
S'sendConfirmaTransaccResponse'
p205
g30
(g31
g32
(dp206
Vreturn
p207
g50
stRp208
(dp209
g46
I00
sg47
(lp210
g207
asbssg56
(dp211
S'sendConfirmaTransacc'
p212
g30
(g31
g32
(dp213
Varg0
p214
g42
sVarg1
p215
g42
sVarg2
p216
(lp217
g30
(g31
g32
(dp218
Vp_ids_transac
p219
g64
sVn_cantidad
p220
g83
sVf_operacion
p221
g42
stRp222
(dp223
g46
I01
sg47
(lp224
g221
ag220
ag219
asbastRp225
(dp226
g46
I00
sg47
(lp227
g214
ag215
ag216
asbsssVsendCancelaTransac
p228
(dp229
g19
g228
sg8
V
sg20
Nsg21
(dp230
g23
Nsg24
Nsg25
Nsg26
Nssg27
(dp231
S'sendCancelaTransacResponse'
p232
g30
(g31
g32
(dp233
Vreturn
p234
g50
stRp235
(dp236
g46
I00
sg47
(lp237
g234
asbssg56
(dp238
S'sendCancelaTransac'
p239
g30
(g31
g32
(dp240
Varg0
p241
g64
sVarg1
p242
g42
sVarg2
p243
g42
stRp244
(dp245
g46
I00
sg47
(lp246
g241
ag242
ag243
asbsssVgetTransacciones
p247
(dp248
g19
g247
sg8
V
sg20
Nsg21
(dp249
g23
Nsg24
Nsg25
Nsg26
Nssg27
(dp250
S'getTransaccionesResponse'
p251
g30
(g31
g32
(dp252
Vreturn
p253
g75
stRp254
(dp255
g46
I00
sg47
(lp256
g253
asbssg56
(dp257
S'getTransacciones'
p258
g30
(g31
g32
(dp259
Varg8
p260
g42
sVarg9
p261
g42
sVarg0
p262
g42
sVarg1
p263
g42
sVarg2
p264
g42
sVarg3
p265
g42
sVarg4
p266
g42
sVarg5
p267
g42
sVarg6
p268
g42
sVarg7
p269
g42
sVarg12
p270
g42
sVarg13
p271
g42
sVarg10
p272
g42
sVarg11
p273
g42
sVarg14
p274
g42
sVarg15
p275
g42
stRp276
(dp277
g46
I00
sg47
(lp278
g262
ag263
ag264
ag265
ag266
ag267
ag268
ag269
ag260
ag261
ag272
ag273
ag270
ag271
ag274
ag275
asbssssS'location'
p279
Vhttp://localhost:9050/trazaenagr.WebService
p280
sS'service_name'
p281
g6
sS'soap_uri'
p282
Vhttp://schemas.xmlsoap.org/wsdl/soap/
p283
sS'soap_ver'
p284
S'soap11'
p285
sS'transport'
p286
Vhttp://schemas.xmlsoap.org/soap/http
p287
sssssS'version'
p288
S'1.08.8'
p289
sS'namespace'
p290
Vhttp://business.WebServiceSenasa.inssjp.com/
p291
sg8
V
s.