(dp1
S'url'
p2
S'https://fwshomo.afip.gov.ar/wsctg/services/CTGService_v3.0?wsdl'
p3
sS'services'
p4
(dp5
VCTGService_v3.0
p6
(dp7
S'documentation'
p8
S''
sS'ports'
p9
(dp10
VCTGServiceHttpSoap20Endpoint
p11
(dp12
S'port_type_name'
p13
S'CTGServicePortType'
p14
sS'operations'
p15
(dp16
VconsultarCTGActivosPorPatente
p17
(dp18
S'name'
p19
g17
sg8
V
sS'header'
p20
NsS'parts'
p21
(dp22
S'input_header'
p23
NsS'input_body'
p24
NsS'output_header'
p25
NsS'output_body'
p26
NssS'output'
p27
(dp28
S'consultarCTGActivosPorPatenteResponse'
p29
ccopy_reg
_reconstructor
p30
(cpysimplesoap.simplexml
OrderedDict
p31
c__builtin__
dict
p32
(dp33
Vresponse
p34
g30
(g31
g32
(dp35
VarrayConsultarCTGActivosPorPatenteResponse
p36
(lp37
g30
(g31
g32
(dp38
VdetalleConsultaCTGActivo
p39
g30
(g31
g32
(dp40
VfechaEmision
p41
c__builtin__
unicode
p42
sVpesoNeto
p43
g42
sVpatente
p44
g42
sVusuarioReal
p45
g42
sVcartaPorte
p46
g42
sVctg
p47
g42
sVusuarioSolicitante
p48
g42
sVfechaVencimiento
p49
g42
stRp50
(dp51
S'array'
p52
I00
sS'_OrderedDict__keys'
p53
(lp54
g47
ag46
ag44
ag43
ag41
ag49
ag48
ag45
asbstRp55
(dp56
g52
I01
sg53
(lp57
g39
asbasVarrayErrores
p58
(lp59
g30
(g31
g32
(dp60
Verror
p61
g42
stRp62
(dp63
g52
I01
sg53
(lp64
g61
asbastRp65
(dp66
g52
I00
sg53
(lp67
g36
ag58
asbstRp68
(dp69
g52
I00
sg53
(lp70
g34
asbssS'action'
p71
Vhttp://impl.service.wsctg.afip.gov.ar/CTGService_v3.0/consultarCTGActivosPorPatente
p72
sS'input'
p73
(dp74
S'consultarCTGActivosPorPatente'
p75
g30
(g31
g32
(dp76
Vrequest
p77
g30
(g31
g32
(dp78
Vpatente
p79
g42
sVauth
p80
g30
(g31
g32
(dp81
Vtoken
p82
g42
sVcuitRepresentado
p83
c__builtin__
long
p84
sVsign
p85
g42
stRp86
(dp87
g52
I00
sg53
(lp88
g82
ag85
ag83
asbstRp89
(dp90
g52
I00
sg53
(lp91
g80
ag79
asbstRp92
(dp93
g52
I00
sg53
(lp94
g77
asbsssVconsultarCTGRechazados
p95
(dp96
g19
g95
sg8
V
sg20
Nsg21
(dp97
g23
Nsg24
Nsg25
Nsg26
Nssg27
(dp98
S'consultarCTGRechazadosResponse'
p99
g30
(g31
g32
(dp100
Vresponse
p101
g30
(g31
g32
(dp102
VarrayConsultarCTGRechazados
p103
(lp104
g30
(g31
g32
(dp105
VdetalleConsultaCTGRechazado
p106
g30
(g31
g32
(dp107
VcartaPorte
p108
g42
sVdestino
p109
g42
sVctg
p110
g42
sVobservaciones
p111
g42
sVdestinatario
p112
g42
sVfechaRechazo
p113
g42
stRp114
(dp115
g52
I00
sg53
(lp116
g110
ag108
ag113
ag109
ag112
ag111
asbstRp117
(dp118
g52
I01
sg53
(lp119
g106
asbasVarrayErrores
p120
(lp121
g62
astRp122
(dp123
g52
I00
sg53
(lp124
g103
ag120
asbstRp125
(dp126
g52
I00
sg53
(lp127
g101
asbssg71
Vhttp://impl.service.wsctg.afip.gov.ar/CTGService_v3.0/consultarCTGRechazados
p128
sg73
(dp129
S'consultarCTGRechazados'
p130
g30
(g31
g32
(dp131
Vrequest
p132
g30
(g31
g32
(dp133
Vauth
p134
g86
stRp135
(dp136
g52
I00
sg53
(lp137
g134
asbstRp138
(dp139
g52
I00
sg53
(lp140
g132
asbsssVsolicitarCTGInicial
p141
(dp142
g19
g141
sg8
V
sg20
Nsg21
(dp143
g23
Nsg24
Nsg25
Nsg26
Nssg27
(dp144
S'solicitarCTGInicialResponse'
p145
g30
(g31
g32
(dp146
Vresponse
p147
g30
(g31
g32
(dp148
Vobservacion
p149
g42
sVdatosSolicitarCTGResponse
p150
g30
(g31
g32
(dp151
VdatosSolicitarCTG
p152
g30
(g31
g32
(dp153
VfechaEmision
p154
g42
sVfechaVigenciaDesde
p155
g42
sVctg
p156
g84
sVfechaVigenciaHasta
p157
g42
sVtarifaReferencia
p158
cdecimal
Decimal
p159
stRp160
(dp161
g52
I00
sg53
(lp162
g156
ag154
ag155
ag157
ag158
asbsVcartaPorte
p163
g84
sVarrayControles
p164
(lp165
g30
(g31
g32
(dp166
Vcontrol
p167
g30
(g31
g32
(dp168
Vdescripcion
p169
g42
sVtipo
p170
g42
stRp171
(dp172
g52
I00
sg53
(lp173
g170
ag169
asbstRp174
(dp175
g52
I01
sg53
(lp176
g167
asbastRp177
(dp178
g52
I00
sg53
(lp179
g163
ag152
ag164
asbsVarrayErrores
p180
(lp181
g62
astRp182
(dp183
g52
I00
sg53
(lp184
g149
ag150
ag180
asbstRp185
(dp186
g52
I00
sg53
(lp187
g147
asbssg71
Vhttp://impl.service.wsctg.afip.gov.ar/CTGService_v3.0/solicitarCTGInicial
p188
sg73
(dp189
S'solicitarCTGInicial'
p190
g30
(g31
g32
(dp191
Vrequest
p192
g30
(g31
g32
(dp193
VdatosSolicitarCTGInicial
p194
g30
(g31
g32
(dp195
VcodigoLocalidadDestino
p196
c__builtin__
int
p197
sVcodigoLocalidadOrigen
p198
g197
sVcartaPorte
p199
g84
sVcuitTransportista
p200
g84
sVremitenteComercialComoCanjeador
p201
g42
sVcodigoCosecha
p202
g42
sVpesoNeto
p203
g84
sVcuitCanjeador
p204
g84
sVcuitDestino
p205
g84
sVpatente
p206
g42
sVcuitCorredor
p207
g84
sVcodigoEspecie
p208
g197
sVkmARecorrer
p209
g30
(g31
g32
(dtRp210
(dp211
g52
I00
sg53
(lp212
sbsVcuitDestinatario
p213
g84
sVcantHoras
p214
g197
sVremitenteComercialcomoProductor
p215
g42
stRp216
(dp217
g52
I00
sg53
(lp218
g199
ag208
ag204
ag201
ag205
ag213
ag198
ag196
ag202
ag203
ag200
ag214
ag206
ag209
ag207
ag215
asbsVauth
p219
g86
stRp220
(dp221
g52
I00
sg53
(lp222
g219
ag194
asbstRp223
(dp224
g52
I00
sg53
(lp225
g192
asbsssVcambiarDestinoDestinatarioCTGRechazado
p226
(dp227
g19
g226
sg8
V
sg20
Nsg21
(dp228
g23
Nsg24
Nsg25
Nsg26
Nssg27
(dp229
S'cambiarDestinoDestinatarioCTGRechazadoResponse'
p230
g30
(g31
g32
(dp231
Vresponse
p232
g30
(g31
g32
(dp233
VarrayErrores
p234
(lp235
g62
asVdatosResponse
p236
g30
(g31
g32
(dp237
VcartaPorte
p238
g84
sVcodigoOperacion
p239
g84
sVctg
p240
g84
sVfechaHora
p241
g42
stRp242
(dp243
g52
I00
sg53
(lp244
g238
ag240
ag241
ag239
asbstRp245
(dp246
g52
I00
sg53
(lp247
g236
ag234
asbstRp248
(dp249
g52
I00
sg53
(lp250
g232
asbssg71
Vhttp://impl.service.wsctg.afip.gov.ar/CTGService_v3.0/cambiarDestinoDestinatarioCTGRechazado
p251
sg73
(dp252
S'cambiarDestinoDestinatarioCTGRechazado'
p253
g30
(g31
g32
(dp254
Vrequest
p255
g30
(g31
g32
(dp256
Vauth
p257
g86
sVdatosCambiarDestinoDestinatarioCTGRechazado
p258
g30
(g31
g32
(dp259
VcodigoLocalidadDestino
p260
g197
sVcartaPorte
p261
g84
sVkmARecorrer
p262
g210
sVctg
p263
g84
sVcuitDestinatario
p264
g84
sVcuitDestino
p265
g84
stRp266
(dp267
g52
I00
sg53
(lp268
g261
ag263
ag260
ag265
ag264
ag262
asbstRp269
(dp270
g52
I00
sg53
(lp271
g257
ag258
asbstRp272
(dp273
g52
I00
sg53
(lp274
g255
asbsssVconsultarCTGExcel
p275
(dp276
g19
g275
sg8
V
sg20
Nsg21
(dp277
g23
Nsg24
Nsg25
Nsg26
Nssg27
(dp278
S'consultarCTGExcelResponse'
p279
g30
(g31
g32
(dp280
Vresponse
p281
g30
(g31
g32
(dp282
VarrayErrores
p283
(lp284
g62
asVarchivo
p285
g42
stRp286
(dp287
g52
I00
sg53
(lp288
g285
ag283
asbstRp289
(dp290
g52
I00
sg53
(lp291
g281
asbssg71
Vhttp://impl.service.wsctg.afip.gov.ar/CTGService_v3.0/consultarCTGExcel
p292
sg73
(dp293
S'consultarCTGExcel'
p294
g30
(g31
g32
(dp295
Vrequest
p296
g30
(g31
g32
(dp297
VconsultarCTGDatos
p298
g30
(g31
g32
(dp299
VcartaPorte
p300
g84
sVfechaEmisionHasta
p301
g42
sVcuitDestino
p302
g84
sVctg
p303
g84
sVpatente
p304
g42
sVfechaEmisionDesde
p305
g42
sVcuitSolicitante
p306
g84
stRp307
(dp308
g52
I00
sg53
(lp309
g303
ag300
ag304
ag305
ag301
ag306
ag302
asbsVauth
p310
g86
stRp311
(dp312
g52
I00
sg53
(lp313
g310
ag298
asbstRp314
(dp315
g52
I00
sg53
(lp316
g296
asbsssVconsultarCosechas
p317
(dp318
g19
g317
sg8
V
sg20
Nsg21
(dp319
g23
Nsg24
Nsg25
Nsg26
Nssg27
(dp320
S'consultarCosechasResponse'
p321
g30
(g31
g32
(dp322
Vresponse
p323
g30
(g31
g32
(dp324
VarrayErrores
p325
(lp326
g62
asVarrayCosechas
p327
(lp328
g30
(g31
g32
(dp329
Vcosecha
p330
g30
(g31
g32
(dp331
Vdescripcion
p332
g42
sVcodigo
p333
g42
stRp334
(dp335
g52
I00
sg53
(lp336
g333
ag332
asbstRp337
(dp338
g52
I01
sg53
(lp339
g330
asbastRp340
(dp341
g52
I00
sg53
(lp342
g327
ag325
asbstRp343
(dp344
g52
I00
sg53
(lp345
g323
asbssg71
Vhttp://impl.service.wsctg.afip.gov.ar/CTGService_v3.0/consultarCosechas
p346
sg73
(dp347
S'consultarCosechas'
p348
g30
(g31
g32
(dp349
Vrequest
p350
g30
(g31
g32
(dp351
Vauth
p352
g86
stRp353
(dp354
g52
I00
sg53
(lp355
g352
asbstRp356
(dp357
g52
I00
sg53
(lp358
g350
asbsssVsolicitarCTGDatoPendiente
p359
(dp360
g19
g359
sg8
V
sg20
Nsg21
(dp361
g23
Nsg24
Nsg25
Nsg26
Nssg27
(dp362
S'solicitarCTGDatoPendienteResponse'
p363
g30
(g31
g32
(dp364
Vresponse
p365
g182
stRp366
(dp367
g52
I00
sg53
(lp368
g365
asbssg71
Vhttp://impl.service.wsctg.afip.gov.ar/CTGService_v3.0/solicitarCTGDatoPendiente
p369
sg73
(dp370
S'solicitarCTGDatoPendiente'
p371
g30
(g31
g32
(dp372
Vrequest
p373
g30
(g31
g32
(dp374
Vauth
p375
g86
sVdatosSolicitarCTGDatoPendiente
p376
g30
(g31
g32
(dp377
Vpatente
p378
g42
sVcartaPorte
p379
g84
sVcuitTransportista
p380
g84
sVcantHoras
p381
g197
stRp382
(dp383
g52
I00
sg53
(lp384
g379
ag380
ag381
ag378
asbstRp385
(dp386
g52
I00
sg53
(lp387
g375
ag376
asbstRp388
(dp389
g52
I00
sg53
(lp390
g373
asbsssVconfirmarArribo
p391
(dp392
g19
g391
sg8
V
sg20
Nsg21
(dp393
g23
Nsg24
Nsg25
Nsg26
Nssg27
(dp394
S'confirmarArriboResponse'
p395
g30
(g31
g32
(dp396
g232
g245
stRp397
(dp398
g52
I00
sg53
(lp399
g232
asbssg71
Vhttp://impl.service.wsctg.afip.gov.ar/CTGService_v3.0/confirmarArribo
p400
sg73
(dp401
S'confirmarArribo'
p402
g30
(g31
g32
(dp403
Vrequest
p404
g30
(g31
g32
(dp405
VdatosConfirmarArribo
p406
g30
(g31
g32
(dp407
VcartaPorte
p408
g84
sVconsumoPropio
p409
g42
sVctg
p410
g84
sVcantKilosCartaPorte
p411
g84
sVcuitChofer
p412
g84
sVcuitTransportista
p413
g84
sVestablecimiento
p414
g84
stRp415
(dp416
g52
I00
sg53
(lp417
g408
ag410
ag413
ag412
ag411
ag409
ag414
asbsVauth
p418
g86
stRp419
(dp420
g52
I00
sg53
(lp421
g418
ag406
asbstRp422
(dp423
g52
I00
sg53
(lp424
g404
asbsssVconfirmarDefinitivo
p425
(dp426
g19
g425
sg8
V
sg20
Nsg21
(dp427
g23
Nsg24
Nsg25
Nsg26
Nssg27
(dp428
S'confirmarDefinitivoResponse'
p429
g30
(g31
g32
(dp430
Vresponse
p431
g30
(g31
g32
(dp432
VarrayErrores
p433
(lp434
g62
asVdatosResponse
p435
g30
(g31
g32
(dp436
VcartaPorte
p437
g84
sVctg
p438
g84
sVfechaHora
p439
g42
stRp440
(dp441
g52
I00
sg53
(lp442
g438
ag437
ag439
asbsVdetalle
p443
g42
stRp444
(dp445
g52
I00
sg53
(lp446
g443
ag435
ag433
asbstRp447
(dp448
g52
I00
sg53
(lp449
g431
asbssg71
Vhttp://impl.service.wsctg.afip.gov.ar/CTGService_v3.0/confirmarDefinitivo
p450
sg73
(dp451
S'confirmarDefinitivo'
p452
g30
(g31
g32
(dp453
Vrequest
p454
g30
(g31
g32
(dp455
VdatosConfirmarDefinitivo
p456
g30
(g31
g32
(dp457
Vespecie
p458
g84
sVcartaPorte
p459
g84
sVpesoNeto
p460
g84
sVcodigoCosecha
p461
g42
sVctg
p462
g84
stRp463
(dp464
g52
I00
sg53
(lp465
g459
ag462
ag458
ag461
ag460
asbsVauth
p466
g86
stRp467
(dp468
g52
I00
sg53
(lp469
g466
ag456
asbstRp470
(dp471
g52
I00
sg53
(lp472
g454
asbsssVdesviarCTGAOtroEstablecimiento
p473
(dp474
g19
g473
sg8
V
sg20
Nsg21
(dp475
g23
Nsg24
Nsg25
Nsg26
Nssg27
(dp476
S'desviarCTGAOtroEstablecimientoResponse'
p477
g30
(g31
g32
(dp478
g232
g245
stRp479
(dp480
g52
I00
sg53
(lp481
g232
asbssg71
Vhttp://impl.service.wsctg.afip.gov.ar/CTGService_v3.0/desviarCTGAOtroEstablecimiento
p482
sg73
(dp483
S'desviarCTGAOtroEstablecimiento'
p484
g30
(g31
g32
(dp485
Vrequest
p486
g30
(g31
g32
(dp487
VdatosDesviarCTG
p488
g30
(g31
g32
(dp489
VcodigoLocalidadDestino
p490
g197
sVcartaPorte
p491
g84
sVkmARecorrer
p492
g210
sVctg
p493
g84
stRp494
(dp495
g52
I00
sg53
(lp496
g491
ag493
ag490
ag492
asbsVauth
p497
g86
sVestablecimiento
p498
g84
stRp499
(dp500
g52
I00
sg53
(lp501
g497
ag488
ag498
asbstRp502
(dp503
g52
I00
sg53
(lp504
g486
asbsssVconsultarLocalidadesPorProvincia
p505
(dp506
g19
g505
sg8
V
sg20
Nsg21
(dp507
g23
Nsg24
Nsg25
Nsg26
Nssg27
(dp508
S'consultarLocalidadesPorProvinciaResponse'
p509
g30
(g31
g32
(dp510
Vresponse
p511
g30
(g31
g32
(dp512
VarrayErrores
p513
(lp514
g62
asVarrayLocalidades
p515
(lp516
g30
(g31
g32
(dp517
Vlocalidad
p518
g30
(g31
g32
(dp519
Vdescripcion
p520
g42
sVcodigo
p521
g197
stRp522
(dp523
g52
I00
sg53
(lp524
g521
ag520
asbstRp525
(dp526
g52
I01
sg53
(lp527
g518
asbastRp528
(dp529
g52
I00
sg53
(lp530
g515
ag513
asbstRp531
(dp532
g52
I00
sg53
(lp533
g511
asbssg71
Vhttp://impl.service.wsctg.afip.gov.ar/CTGService_v3.0/consultarLocalidadesPorProvincia
p534
sg73
(dp535
S'consultarLocalidadesPorProvincia'
p536
g30
(g31
g32
(dp537
Vrequest
p538
g30
(g31
g32
(dp539
VcodigoProvincia
p540
g30
(cpysimplesoap.simplexml
Alias
p541
c__builtin__
object
p542
NtRp543
(dp544
S'py_type'
p545
c__builtin__
str
p546
sS'xml_type'
p547
S'byte'
p548
sbsVauth
p549
g86
stRp550
(dp551
g52
I00
sg53
(lp552
g549
ag540
asbstRp553
(dp554
g52
I00
sg53
(lp555
g538
asbsssVanularCTG
p556
(dp557
g19
g556
sg8
V
sg20
Nsg21
(dp558
g23
Nsg24
Nsg25
Nsg26
Nssg27
(dp559
S'anularCTGResponse'
p560
g30
(g31
g32
(dp561
g232
g245
stRp562
(dp563
g52
I00
sg53
(lp564
g232
asbssg71
Vhttp://impl.service.wsctg.afip.gov.ar/CTGService_v3.0/anularCTG
p565
sg73
(dp566
S'anularCTG'
p567
g30
(g31
g32
(dp568
Vrequest
p569
g30
(g31
g32
(dp570
VdatosAnularCTG
p571
g30
(g31
g32
(dp572
VcartaPorte
p573
g84
sVctg
p574
g84
stRp575
(dp576
g52
I00
sg53
(lp577
g573
ag574
asbsVauth
p578
g86
stRp579
(dp580
g52
I00
sg53
(lp581
g578
ag571
asbstRp582
(dp583
g52
I00
sg53
(lp584
g569
asbsssVconsultarDetalleCTG
p585
(dp586
g19
g585
sg8
V
sg20
Nsg21
(dp587
g23
Nsg24
Nsg25
Nsg26
Nssg27
(dp588
S'consultarDetalleCTGResponse'
p589
g30
(g31
g32
(dp590
Vresponse
p591
g30
(g31
g32
(dp592
VconsultarDetalleCTGDatos
p593
g30
(g31
g32
(dp594
VfechaEmision
p595
g42
sVctg
p596
g84
sVpatenteVehiculo
p597
g42
sVcartaPorte
p598
g84
sVcuitTransportista
p599
g42
sVcosecha
p600
g42
sVfechaVigenciaDesde
p601
g42
sVestado
p602
g42
sVsolicitante
p603
g42
sVfechaVigenciaHasta
p604
g42
sVestablecimiento
p605
g84
sVespecie
p606
g42
sVctcCodigo
p607
g42
sVcuitCanjeador
p608
g42
sVcuitDestino
p609
g42
sVcanjeadorComoRemitenteComercial
p610
g42
sVcuitCorredor
p611
g42
sVfechaHoraConfirmacionDefinitiva
p612
g42
sVcantidadHoras
p613
g197
sVtarifaReferencia
p614
g159
sVkmARecorrer
p615
g210
sVlocalidadDestino
p616
g42
sVcuitDestinatario
p617
g42
sVdetalle
p618
g42
sVlocalidadOrigen
p619
g42
sVpesoNetoCarga
p620
g84
sVremitenteComercialcomoProductor
p621
g42
stRp622
(dp623
g52
I00
sg53
(lp624
g596
ag603
ag598
ag602
ag595
ag601
ag604
ag608
ag610
ag606
ag609
ag617
ag605
ag619
ag616
ag600
ag599
ag618
ag613
ag597
ag620
ag615
ag614
ag612
ag611
ag621
ag607
asbsVarrayErrores
p625
(lp626
g62
astRp627
(dp628
g52
I00
sg53
(lp629
g593
ag625
asbstRp630
(dp631
g52
I00
sg53
(lp632
g591
asbssg71
Vhttp://impl.service.wsctg.afip.gov.ar/CTGService_v3.0/consultarDetalleCTG
p633
sg73
(dp634
S'consultarDetalleCTG'
p635
g30
(g31
g32
(dp636
Vrequest
p637
g30
(g31
g32
(dp638
Vctg
p639
g84
sVauth
p640
g86
stRp641
(dp642
g52
I00
sg53
(lp643
g640
ag639
asbstRp644
(dp645
g52
I00
sg53
(lp646
g637
asbsssVconsultarEspecies
p647
(dp648
g19
g647
sg8
V
sg20
Nsg21
(dp649
g23
Nsg24
Nsg25
Nsg26
Nssg27
(dp650
S'consultarEspeciesResponse'
p651
g30
(g31
g32
(dp652
Vresponse
p653
g30
(g31
g32
(dp654
VarrayErrores
p655
(lp656
g62
asVarrayEspecies
p657
(lp658
g30
(g31
g32
(dp659
Vespecie
p660
g30
(g31
g32
(dp661
Vdescripcion
p662
g42
sVcodigo
p663
g197
stRp664
(dp665
g52
I00
sg53
(lp666
g663
ag662
asbstRp667
(dp668
g52
I01
sg53
(lp669
g660
asbastRp670
(dp671
g52
I00
sg53
(lp672
g657
ag655
asbstRp673
(dp674
g52
I00
sg53
(lp675
g653
asbssg71
Vhttp://impl.service.wsctg.afip.gov.ar/CTGService_v3.0/consultarEspecies
p676
sg73
(dp677
S'consultarEspecies'
p678
g30
(g31
g32
(dp679
Vrequest
p680
g30
(g31
g32
(dp681
Vauth
p682
g86
stRp683
(dp684
g52
I00
sg53
(lp685
g682
asbstRp686
(dp687
g52
I00
sg53
(lp688
g680
asbsssVconsultarCTG
p689
(dp690
g19
g689
sg8
V
sg20
Nsg21
(dp691
g23
Nsg24
Nsg25
Nsg26
Nssg27
(dp692
S'consultarCTGResponse'
p693
g30
(g31
g32
(dp694
Vresponse
p695
g30
(g31
g32
(dp696
VarrayErrores
p697
(lp698
g62
asVconsultarCTGDatos
p699
g307
sVarrayDatosConsultarCTG
p700
(lp701
g30
(g31
g32
(dp702
VdatosConsultarCTG
p703
g30
(g31
g32
(dp704
VfechaSolicitud
p705
g42
sVctg
p706
g42
sVestado
p707
g42
sVcartaPorte
p708
g42
sVimprimeConstancia
p709
c__builtin__
bool
p710
stRp711
(dp712
g52
I00
sg53
(lp713
g705
ag706
ag708
ag707
ag709
asbstRp714
(dp715
g52
I01
sg53
(lp716
g703
asbastRp717
(dp718
g52
I00
sg53
(lp719
g699
ag700
ag697
asbstRp720
(dp721
g52
I00
sg53
(lp722
g695
asbssg71
Vhttp://impl.service.wsctg.afip.gov.ar/CTGService_v3.0/consultarCTG
p723
sg73
(dp724
S'consultarCTG'
p725
g30
(g31
g32
(dp726
Vrequest
p727
g311
stRp728
(dp729
g52
I00
sg53
(lp730
g727
asbsssVconsultarProvincias
p731
(dp732
g19
g731
sg8
V
sg20
Nsg21
(dp733
g23
Nsg24
Nsg25
Nsg26
Nssg27
(dp734
S'consultarProvinciasResponse'
p735
g30
(g31
g32
(dp736
VconsultarProvinciasResponse
p737
g30
(g31
g32
(dp738
VarrayErrores
p739
(lp740
g62
asVarrayProvincias
p741
(lp742
g30
(g31
g32
(dp743
Vprovincia
p744
g30
(g31
g32
(dp745
Vdescripcion
p746
g42
sVcodigo
p747
g543
stRp748
(dp749
g52
I00
sg53
(lp750
g747
ag746
asbstRp751
(dp752
g52
I01
sg53
(lp753
g744
asbastRp754
(dp755
g52
I00
sg53
(lp756
g741
ag739
asbstRp757
(dp758
g52
I00
sg53
(lp759
g737
asbssg71
Vhttp://impl.service.wsctg.afip.gov.ar/CTGService_v3.0/consultarProvincias
p760
sg73
(dp761
S'consultarProvincias'
p762
g30
(g31
g32
(dp763
Vrequest
p764
g30
(g31
g32
(dp765
Vauth
p766
g86
stRp767
(dp768
g52
I00
sg53
(lp769
g766
asbstRp770
(dp771
g52
I00
sg53
(lp772
g764
asbsssVconsultarConstanciaCTGPDF
p773
(dp774
g19
g773
sg8
V
sg20
Nsg21
(dp775
g23
Nsg24
Nsg25
Nsg26
Nssg27
(dp776
S'consultarConstanciaCTGPDFResponse'
p777
g30
(g31
g32
(dp778
Vresponse
p779
g30
(g31
g32
(dp780
VarrayErrores
p781
(lp782
g62
asVarchivo
p783
g42
stRp784
(dp785
g52
I00
sg53
(lp786
g783
ag781
asbstRp787
(dp788
g52
I00
sg53
(lp789
g779
asbssg71
Vhttp://impl.service.wsctg.afip.gov.ar/CTGService_v3.0/consultarConstanciaCTGPDF
p790
sg73
(dp791
S'consultarConstanciaCTGPDF'
p792
g30
(g31
g32
(dp793
Vrequest
p794
g30
(g31
g32
(dp795
Vctg
p796
g84
sVauth
p797
g86
stRp798
(dp799
g52
I00
sg53
(lp800
g797
ag796
asbstRp801
(dp802
g52
I00
sg53
(lp803
g794
asbsssVmodificarRemitenteComercial
p804
(dp805
g19
g804
sg8
V
sg20
Nsg21
(dp806
g23
Nsg24
Nsg25
Nsg26
Nssg27
(dp807
S'modificarRemitenteComercialResponse'
p808
g30
(g31
g32
(dp809
Vresponse
p810
g30
(g31
g32
(dp811
VarrayErrores
p812
(lp813
g62
asVdatosResponse
p814
g30
(g31
g32
(dp815
VcartaPorte
p816
g84
sVctg
p817
g84
sVcuitRemitenteComercialAnterior
p818
g84
sVnombreRemitenteComercialAnterior
p819
g42
sVnombreRemitenteComercialNuevo
p820
g42
sVcuitRemitenteComercialNuevo
p821
g84
stRp822
(dp823
g52
I00
sg53
(lp824
g816
ag817
ag818
ag819
ag821
ag820
asbstRp825
(dp826
g52
I00
sg53
(lp827
g814
ag812
asbstRp828
(dp829
g52
I00
sg53
(lp830
g810
asbssg71
Vhttp://impl.service.wsctg.afip.gov.ar/CTGService_v3.0/modificarRemitenteComercial
p831
sg73
(dp832
S'modificarRemitenteComercial'
p833
g30
(g31
g32
(dp834
Vrequest
p835
g30
(g31
g32
(dp836
VdatosModificarRemitenteComercial
p837
g30
(g31
g32
(dp838
VcorrespondeRemitenteComercialOIntermediarioProductor
p839
g42
sVctg
p840
g84
sVremitenteComercialOIntermediarioComoCanjeador
p841
g42
sVcuitRemitenteComercialOIntermediario
p842
g84
sVcartaPorte
p843
g84
stRp844
(dp845
g52
I00
sg53
(lp846
g843
ag840
ag842
ag841
ag839
asbsVauth
p847
g86
stRp848
(dp849
g52
I00
sg53
(lp850
g847
ag837
asbstRp851
(dp852
g52
I00
sg53
(lp853
g835
asbsssVdummy
p854
(dp855
g19
g854
sg8
V
sg20
Nsg21
(dp856
g23
Nsg24
Nsg25
Nsg26
Nssg27
(dp857
S'dummyResponse'
p858
g30
(g31
g32
(dp859
Vresponse
p860
g30
(g31
g32
(dp861
Vappserver
p862
g42
sVauthserver
p863
g42
sVdbserver
p864
g42
stRp865
(dp866
g52
I00
sg53
(lp867
g862
ag863
ag864
asbstRp868
(dp869
g52
I00
sg53
(lp870
g860
asbssg71
Vhttp://impl.service.wsctg.afip.gov.ar/CTGService_v3.0/dummy
p871
sg73
NssVrechazarCTG
p872
(dp873
g19
g872
sg8
V
sg20
Nsg21
(dp874
g23
Nsg24
Nsg25
Nsg26
Nssg27
(dp875
S'rechazarCTGResponse'
p876
g30
(g31
g32
(dp877
g232
g245
stRp878
(dp879
g52
I00
sg53
(lp880
g232
asbssg71
Vhttp://impl.service.wsctg.afip.gov.ar/CTGService_v3.0/rechazarCTG
p881
sg73
(dp882
S'rechazarCTG'
p883
g30
(g31
g32
(dp884
Vrequest
p885
g30
(g31
g32
(dp886
VdatosRechazarCTG
p887
g30
(g31
g32
(dp888
VcartaPorte
p889
g84
sVctg
p890
g84
sVmotivoRechazo
p891
g42
stRp892
(dp893
g52
I00
sg53
(lp894
g889
ag890
ag891
asbsVauth
p895
g86
stRp896
(dp897
g52
I00
sg53
(lp898
g895
ag887
asbstRp899
(dp900
g52
I00
sg53
(lp901
g885
asbsssVdesviarCTGAOtroDestino
p902
(dp903
g19
g902
sg8
V
sg20
Nsg21
(dp904
g23
Nsg24
Nsg25
Nsg26
Nssg27
(dp905
S'desviarCTGAOtroDestinoResponse'
p906
g30
(g31
g32
(dp907
g232
g245
stRp908
(dp909
g52
I00
sg53
(lp910
g232
asbssg71
Vhttp://impl.service.wsctg.afip.gov.ar/CTGService_v3.0/desviarCTGAOtroDestino
p911
sg73
(dp912
S'desviarCTGAOtroDestino'
p913
g30
(g31
g32
(dp914
Vrequest
p915
g30
(g31
g32
(dp916
VdatosDesviarCTG
p917
g494
sVauth
p918
g86
sVcuitDestino
p919
g84
stRp920
(dp921
g52
I00
sg53
(lp922
g918
ag917
ag919
asbstRp923
(dp924
g52
I00
sg53
(lp925
g915
asbsssVregresarAOrigenCTGRechazado
p926
(dp927
g19
g926
sg8
V
sg20
Nsg21
(dp928
g23
Nsg24
Nsg25
Nsg26
Nssg27
(dp929
S'regresarAOrigenCTGRechazadoResponse'
p930
g30
(g31
g32
(dp931
g232
g245
stRp932
(dp933
g52
I00
sg53
(lp934
g232
asbssg71
Vhttp://impl.service.wsctg.afip.gov.ar/CTGService_v3.0/regresarAOrigenCTGRechazado
p935
sg73
(dp936
S'regresarAOrigenCTGRechazado'
p937
g30
(g31
g32
(dp938
Vrequest
p939
g30
(g31
g32
(dp940
VdatosRegresarAOrigenCTGRechazado
p941
g30
(g31
g32
(dp942
VcartaPorte
p943
g84
sVkmARecorrer
p944
g210
sVctg
p945
g84
stRp946
(dp947
g52
I00
sg53
(lp948
g943
ag945
ag944
asbsVauth
p949
g86
stRp950
(dp951
g52
I00
sg53
(lp952
g949
ag941
asbstRp953
(dp954
g52
I00
sg53
(lp955
g939
asbsssVconsultarEstablecimientos
p956
(dp957
g19
g956
sg8
V
sg20
Nsg21
(dp958
g23
Nsg24
Nsg25
Nsg26
Nssg27
(dp959
S'consultarEstablecimientosResponse'
p960
g30
(g31
g32
(dp961
Vresponse
p962
g30
(g31
g32
(dp963
VarrayErrores
p964
(lp965
g62
asVarrayEstablecimientos
p966
(lp967
g30
(g31
g32
(dp968
Vestablecimiento
p969
g84
stRp970
(dp971
g52
I01
sg53
(lp972
g969
asbastRp973
(dp974
g52
I00
sg53
(lp975
g966
ag964
asbstRp976
(dp977
g52
I00
sg53
(lp978
g962
asbssg71
Vhttp://impl.service.wsctg.afip.gov.ar/CTGService_v3.0/consultarEstablecimientos
p979
sg73
(dp980
S'consultarEstablecimientos'
p981
g30
(g31
g32
(dp982
Vrequest
p983
g30
(g31
g32
(dp984
Vauth
p985
g86
stRp986
(dp987
g52
I00
sg53
(lp988
g985
asbstRp989
(dp990
g52
I00
sg53
(lp991
g983
asbsssVCTGsPendientesResolucion
p992
(dp993
g19
g992
sg8
V
sg20
Nsg21
(dp994
g23
Nsg24
Nsg25
Nsg26
Nssg27
(dp995
S'CTGsPendientesResolucionResponse'
p996
g30
(g31
g32
(dp997
Vresponse
p998
g30
(g31
g32
(dp999
VarrayCTGsRechazadosAResolver
p1000
(lp1001
g30
(g31
g32
(dp1002
VCTGRechazadosAResolver
p1003
g30
(g31
g32
(dp1004
VcartaPorte
p1005
g84
sVdestino
p1006
g42
sVctg
p1007
g84
sVobservaciones
p1008
g42
sVdestinatario
p1009
g42
sVfechaRechazo
p1010
g42
stRp1011
(dp1012
g52
I00
sg53
(lp1013
g1007
ag1005
ag1010
ag1006
ag1009
ag1008
asbstRp1014
(dp1015
g52
I01
sg53
(lp1016
g1003
asbasVarrayErrores
p1017
(lp1018
g62
asVarrayCTGsOtorgadosAResolver
p1019
(lp1020
g30
(g31
g32
(dp1021
VCTGOtorgadosAResolver
p1022
g30
(g31
g32
(dp1023
VcartaPorte
p1024
g84
sVctg
p1025
g84
sVdestino
p1026
g42
sVfechaEmision
p1027
g42
stRp1028
(dp1029
g52
I00
sg53
(lp1030
g1025
ag1024
ag1027
ag1026
asbstRp1031
(dp1032
g52
I01
sg53
(lp1033
g1022
asbasVarrayCTGsConfirmadosAResolver
p1034
(lp1035
g30
(g31
g32
(dp1036
VCTGConfirmadosAResolver
p1037
g30
(g31
g32
(dp1038
VcartaPorte
p1039
g84
sVctg
p1040
g84
sVfechaConfirmacionArribo
p1041
g42
stRp1042
(dp1043
g52
I00
sg53
(lp1044
g1040
ag1039
ag1041
asbstRp1045
(dp1046
g52
I01
sg53
(lp1047
g1037
asbastRp1048
(dp1049
g52
I00
sg53
(lp1050
g1000
ag1019
ag1034
ag1017
asbstRp1051
(dp1052
g52
I00
sg53
(lp1053
g998
asbssg71
Vhttp://impl.service.wsctg.afip.gov.ar/CTGService_v3.0/CTGsPendientesResolucion
p1054
sg73
(dp1055
S'CTGsPendientesResolucion'
p1056
g30
(g31
g32
(dp1057
Vrequest
p1058
g30
(g31
g32
(dp1059
Vauth
p1060
g86
stRp1061
(dp1062
g52
I00
sg53
(lp1063
g1060
asbstRp1064
(dp1065
g52
I00
sg53
(lp1066
g1058
asbssssS'location'
p1067
Vhttps://fwshomo.afip.gov.ar/wsctg/services/CTGService_v3.0
p1068
sS'service_name'
p1069
g6
sS'soap_uri'
p1070
Vhttp://schemas.xmlsoap.org/wsdl/soap/
p1071
sS'soap_ver'
p1072
S'soap11'
p1073
sS'transport'
p1074
Vhttp://schemas.xmlsoap.org/soap/http
p1075
sssssS'version'
p1076
S'1.08.8'
p1077
sS'namespace'
p1078
Vhttp://impl.service.wsctg.afip.gov.ar/CTGService_v3.0/
p1079
sg8
V
s.