(dp1
S'url'
p2
S'https://trazabilidad.pami.org.ar:9050/trazamed.WebService?wsdl'
p3
sS'services'
p4
(dp5
VIWebService
p6
(dp7
S'documentation'
p8
S''
sS'ports'
p9
(dp10
VIWebServicePort
p11
(dp12
S'port_type_name'
p13
S'IWebServicePortType'
p14
sS'operations'
p15
(dp16
VgetEnviosPropiosAlertados
p17
(dp18
S'name'
p19
g17
sg8
V
sS'header'
p20
NsS'parts'
p21
(dp22
S'input_header'
p23
NsS'input_body'
p24
NsS'output_header'
p25
NsS'output_body'
p26
NssS'output'
p27
(dp28
S'getEnviosPropiosAlertadosResponse'
p29
ccopy_reg
_reconstructor
p30
(cpysimplesoap.simplexml
OrderedDict
p31
c__builtin__
dict
p32
(dp33
Vreturn
p34
g30
(g31
g32
(dp35
VcantPaginas
p36
c__builtin__
long
p37
sVhay_error
p38
c__builtin__
bool
p39
sVlist
p40
(lp41
g30
(g31
g32
(dp42
V_f_transaccion
p43
c__builtin__
unicode
p44
sV_lote
p45
g44
sV_numero_serial
p46
g44
sV_gln_destino
p47
g44
sV_n_remito
p48
g44
sV_id_detalle_evento
p49
g37
sV_razon_social_origen
p50
g44
sV_d_evento
p51
g44
sV_f_evento
p52
g44
sV_id_estado
p53
g37
sV_razon_social_destino
p54
g44
sV_id_evento
p55
g37
sV_d_programa
p56
g44
sV_vencimiento
p57
g44
sV_id_transaccion_global
p58
g44
sV_gtin
p59
g44
sV_n_factura
p60
g44
sV_gln_origen
p61
g44
sV_id_transaccion
p62
g44
sV_nombre
p63
g44
stRp64
(dp65
S'array'
p66
I01
sS'_OrderedDict__keys'
p67
(lp68
g51
ag56
ag52
ag43
ag47
ag61
ag59
ag49
ag53
ag55
ag62
ag58
ag45
ag60
ag48
ag63
ag46
ag54
ag50
ag57
asbasVerrores
p69
(lp70
g30
(g31
g32
(dp71
V_c_error
p72
g44
sV_d_error
p73
g44
stRp74
(dp75
g66
I01
sg67
(lp76
g72
ag73
asbastRp77
(dp78
g66
I00
sg67
(lp79
g36
ag69
ag38
ag40
asbstRp80
(dp81
g66
I00
sg67
(lp82
g34
asbssS'input'
p83
(dp84
S'getEnviosPropiosAlertados'
p85
g30
(g31
g32
(dp86
Varg8
p87
g44
sVarg9
p88
g44
sVarg0
p89
g44
sVarg1
p90
g44
sVarg2
p91
g37
sVarg3
p92
g44
sVarg4
p93
g44
sVarg5
p94
g44
sVarg6
p95
g44
sVarg7
p96
g37
sVarg12
p97
g44
sVarg13
p98
g44
sVarg10
p99
g44
sVarg11
p100
g44
sVarg14
p101
g37
sVarg15
p102
g37
stRp103
(dp104
g66
I00
sg67
(lp105
g89
ag90
ag91
ag92
ag93
ag94
ag95
ag96
ag87
ag88
ag99
ag100
ag97
ag98
ag101
ag102
asbsssVsendCancelacTransacc
p106
(dp107
g19
g106
sg8
V
sg20
Nsg21
(dp108
g23
Nsg24
Nsg25
Nsg26
Nssg27
(dp109
S'sendCancelacTransaccResponse'
p110
g30
(g31
g32
(dp111
Vreturn
p112
g30
(g31
g32
(dp113
Vresultado
p114
g39
sVerrores
p115
(lp116
g74
asVcodigoTransaccion
p117
g44
stRp118
(dp119
g66
I00
sg67
(lp120
g117
ag115
ag114
asbstRp121
(dp122
g66
I00
sg67
(lp123
g112
asbssg83
(dp124
S'sendCancelacTransacc'
p125
g30
(g31
g32
(dp126
Varg0
p127
g37
sVarg1
p128
g44
sVarg2
p129
g44
stRp130
(dp131
g66
I00
sg67
(lp132
g127
ag128
ag129
asbsssVsendAlertaTransacc
p133
(dp134
g19
g133
sg8
V
sg20
Nsg21
(dp135
g23
Nsg24
Nsg25
Nsg26
Nssg27
(dp136
S'sendAlertaTransaccResponse'
p137
g30
(g31
g32
(dp138
Vreturn
p139
g118
stRp140
(dp141
g66
I00
sg67
(lp142
g139
asbssg83
(dp143
S'sendAlertaTransacc'
p144
(lp145
g30
(g31
g32
(dp146
Varg0
p147
g44
sVarg1
p148
g44
sVarg2
p149
g37
stRp150
(dp151
g66
I01
sg67
(lp152
g147
ag148
ag149
asbasssVgetCatalogoElectronicoByGLN
p153
(dp154
g19
g153
sg8
V
sg20
Nsg21
(dp155
g23
Nsg24
Nsg25
Nsg26
Nssg27
(dp156
S'getCatalogoElectronicoByGLNResponse'
p157
g30
(g31
g32
(dp158
Vreturn
p159
g30
(g31
g32
(dp160
VcantPaginas
p161
g37
sV_id_generado
p162
g37
sV_is_modificado
p163
g39
sVhay_error
p164
g39
sVlist
p165
(lp166
g30
(g31
g32
(dp167
Vfecha_alta
p168
g44
sVcuit
p169
g44
sVgln_principal
p170
g44
sVnumero
p171
g44
sVnombre_localidad
p172
g44
sVnombre_tipo_agente
p173
g44
sVid_provincia
p174
g44
sVdepartamento
p175
g44
sVentre_calle_2
p176
g44
sVnombre_provincia
p177
g44
sVfecha_baja
p178
g44
sVpiso
p179
g44
sVgln
p180
g44
sVcodigo_postal
p181
g44
sVrazon_social
p182
g44
sVrazon_social_principal
p183
g44
sVfecha_ult_modificacion
p184
g44
sVdireccion
p185
g44
sVid_localidad
p186
g44
sVid_tipo_agente
p187
g44
sVtelefono
p188
g44
sVemail
p189
g44
sVentre_calle_1
p190
g44
stRp191
(dp192
g66
I01
sg67
(lp193
g181
ag169
ag175
ag185
ag189
ag190
ag176
ag168
ag178
ag184
ag180
ag170
ag186
ag174
ag187
ag172
ag177
ag173
ag171
ag179
ag182
ag183
ag188
asbasVerrores
p194
(lp195
g74
astRp196
(dp197
g66
I00
sg67
(lp198
g162
ag163
ag161
ag194
ag164
ag165
asbstRp199
(dp200
g66
I00
sg67
(lp201
g159
asbssg83
(dp202
S'getCatalogoElectronicoByGLN'
p203
g30
(g31
g32
(dp204
Varg8
p205
g37
sVarg9
p206
g44
sVarg0
p207
g44
sVarg1
p208
g44
sVarg2
p209
g44
sVarg3
p210
g44
sVarg4
p211
g44
sVarg5
p212
g37
sVarg6
p213
g37
sVarg7
p214
g37
stRp215
(dp216
g66
I00
sg67
(lp217
g207
ag208
ag209
ag210
ag211
ag212
ag213
ag214
ag205
ag206
asbsssVgetConsultaStock
p218
(dp219
g19
g218
sg8
V
sg20
Nsg21
(dp220
g23
Nsg24
Nsg25
Nsg26
Nssg27
(dp221
S'getConsultaStockResponse'
p222
g30
(g31
g32
(dp223
Vreturn
p224
g30
(g31
g32
(dp225
VcantPaginas
p226
g37
sg114
g39
sVlist
p227
(lp228
g30
(g31
g32
(dp229
Vforma
p230
g44
sVp_unidades
p231
g37
sVgln
p232
g44
sVserie
p233
g44
sVgtin
p234
g44
sVnombre
p235
g44
sVpresentacion
p236
g44
sVlote
p237
g44
stRp238
(dp239
g66
I01
sg67
(lp240
g230
ag232
ag234
ag237
ag235
ag231
ag236
ag233
asbasg115
g116
sg117
g44
stRp241
(dp242
g66
I00
sg67
(lp243
g117
ag115
ag114
ag226
ag227
asbstRp244
(dp245
g66
I00
sg67
(lp246
g224
asbssg83
(dp247
S'getConsultaStock'
p248
g30
(g31
g32
(dp249
Varg8
p250
g44
sVarg9
p251
g37
sVarg0
p252
g44
sVarg1
p253
g44
sVarg2
p254
g44
sVarg3
p255
g44
sVarg4
p256
g44
sVarg5
p257
g37
sVarg6
p258
g44
sVarg7
p259
g44
sVarg10
p260
g37
stRp261
(dp262
g66
I00
sg67
(lp263
g252
ag253
ag254
ag255
ag256
ag257
ag258
ag259
ag250
ag251
ag260
asbsssVsendMedicamentosFraccion
p264
(dp265
g19
g264
sg8
V
sg20
Nsg21
(dp266
g23
Nsg24
Nsg25
Nsg26
Nssg27
(dp267
S'sendMedicamentosFraccionResponse'
p268
g30
(g31
g32
(dp269
Vreturn
p270
g118
stRp271
(dp272
g66
I00
sg67
(lp273
g270
asbssg83
(dp274
S'sendMedicamentosFraccion'
p275
g30
(g31
g32
(dp276
Varg0
p277
(lp278
g30
(g31
g32
(dp279
Vid_motivo_devolucion
p280
g37
sVn_remito
p281
g44
sVcantidad
p282
g44
sVgln_origen
p283
g44
sVnombres
p284
g44
sVvencimiento
p285
g44
sVgln_destino
p286
g44
sVgtin
p287
g44
sVcuit_destino
p288
g44
sVh_evento
p289
g44
sVfecha_nacimiento
p290
g44
sVpiso
p291
g44
sVprovincia
p292
g44
sVid_motivo_reposicion
p293
g37
sVdireccion
p294
g44
sVf_evento
p295
g44
sVtelefono
p296
g44
sVn_documento
p297
g44
sVdepto
p298
g44
sVn_postal
p299
g44
sVapellido
p300
g44
sVnro_asociado
p301
g44
sVid_obra_social
p302
g44
sVnumero
p303
g44
sVsexo
p304
g44
sVn_factura
p305
g44
sVcuit_origen
p306
g44
sVtipo_documento
p307
g44
sVotro_motivo_devolucion
p308
g44
sVnumero_serial
p309
g44
sVlote
p310
g44
sVlocalidad
p311
g44
sVid_evento
p312
g44
sVid_programa
p313
g37
stRp314
(dp315
g66
I01
sg67
(lp316
g300
ag282
ag288
ag306
ag298
ag294
ag295
ag290
ag286
ag283
ag287
ag289
ag312
ag280
ag293
ag302
ag313
ag311
ag310
ag297
ag305
ag299
ag281
ag284
ag301
ag303
ag309
ag308
ag291
ag292
ag304
ag296
ag307
ag285
asbasVarg1
p317
g44
sVarg2
p318
g44
stRp319
(dp320
g66
I00
sg67
(lp321
g277
ag317
ag318
asbsssVgetTransaccionesWS
p322
(dp323
g19
g322
sg8
V
sg20
Nsg21
(dp324
g23
Nsg24
Nsg25
Nsg26
Nssg27
(dp325
S'getTransaccionesWSResponse'
p326
g30
(g31
g32
(dp327
Vreturn
p328
g30
(g31
g32
(dp329
VcantPaginas
p330
g37
sVhay_error
p331
g39
sVlist
p332
(lp333
g64
asVerrores
p334
(lp335
g74
astRp336
(dp337
g66
I00
sg67
(lp338
g330
ag334
ag331
ag332
asbstRp339
(dp340
g66
I00
sg67
(lp341
g328
asbssg83
(dp342
S'getTransaccionesWS'
p343
g30
(g31
g32
(dp344
Varg8
p345
g44
sVarg9
p346
g44
sVarg0
p347
g44
sVarg1
p348
g44
sVarg2
p349
g37
sVarg3
p350
g44
sVarg4
p351
g44
sVarg5
p352
g44
sVarg6
p353
g37
sVarg7
p354
g44
sVarg12
p355
g44
sVarg13
p356
g44
sVarg10
p357
g44
sVarg11
p358
g44
sVarg16
p359
g37
sVarg17
p360
g37
sVarg14
p361
g44
sVarg15
p362
g37
stRp363
(dp364
g66
I00
sg67
(lp365
g347
ag348
ag349
ag350
ag351
ag352
ag353
ag354
ag345
ag346
ag357
ag358
ag355
ag356
ag361
ag362
ag359
ag360
asbsssVsendMedicamentos
p366
(dp367
g19
g366
sg8
V
sg20
Nsg21
(dp368
g23
Nsg24
Nsg25
Nsg26
Nssg27
(dp369
S'sendMedicamentosResponse'
p370
g30
(g31
g32
(dp371
Vreturn
p372
g118
stRp373
(dp374
g66
I00
sg67
(lp375
g372
asbssg83
(dp376
S'sendMedicamentos'
p377
g30
(g31
g32
(dp378
Varg0
p379
(lp380
g30
(g31
g32
(dp381
Vid_motivo_devolucion
p382
g37
sVn_remito
p383
g44
sVgln_origen
p384
g44
sVnombres
p385
g44
sVvencimiento
p386
g44
sVgln_destino
p387
g44
sVgtin
p388
g44
sVcuit_destino
p389
g44
sVh_evento
p390
g44
sVfecha_nacimiento
p391
g44
sVpiso
p392
g44
sVprovincia
p393
g44
sVid_motivo_reposicion
p394
g37
sVdireccion
p395
g44
sVf_evento
p396
g44
sVtelefono
p397
g44
sVn_documento
p398
g44
sVdepto
p399
g44
sVn_postal
p400
g44
sVapellido
p401
g44
sVnro_asociado
p402
g44
sVid_obra_social
p403
g44
sVnumero
p404
g44
sVsexo
p405
g44
sVn_factura
p406
g44
sVcuit_origen
p407
g44
sVtipo_documento
p408
g44
sVotro_motivo_devolucion
p409
g44
sVnumero_serial
p410
g44
sVlote
p411
g44
sVlocalidad
p412
g44
sVid_evento
p413
g44
sVid_programa
p414
g37
stRp415
(dp416
g66
I01
sg67
(lp417
g401
ag389
ag407
ag399
ag395
ag396
ag391
ag387
ag384
ag388
ag390
ag413
ag382
ag394
ag403
ag414
ag412
ag411
ag398
ag406
ag400
ag383
ag385
ag402
ag404
ag410
ag409
ag392
ag393
ag405
ag397
ag408
ag386
asbasVarg1
p418
g44
sVarg2
p419
g44
stRp420
(dp421
g66
I00
sg67
(lp422
g379
ag418
ag419
asbsssVsendMedicamentosDHSerie
p423
(dp424
g19
g423
sg8
V
sg20
Nsg21
(dp425
g23
Nsg24
Nsg25
Nsg26
Nssg27
(dp426
S'sendMedicamentosDHSerieResponse'
p427
g30
(g31
g32
(dp428
Vreturn
p429
g118
stRp430
(dp431
g66
I00
sg67
(lp432
g429
asbssg83
(dp433
S'sendMedicamentosDHSerie'
p434
g30
(g31
g32
(dp435
Varg0
p436
(lp437
g30
(g31
g32
(dp438
Vid_motivo_devolucion
p439
g37
sVn_remito
p440
g44
sVgln_origen
p441
g44
sVnombres
p442
g44
sVvencimiento
p443
g44
sVgln_destino
p444
g44
sVid_evento
p445
g44
sVcuit_destino
p446
g44
sVh_evento
p447
g44
sVfecha_nacimiento
p448
g44
sVpiso
p449
g44
sVprovincia
p450
g44
sVid_motivo_reposicion
p451
g37
sVdireccion
p452
g44
sVf_evento
p453
g44
sVtelefono
p454
g44
sVn_documento
p455
g44
sVdepto
p456
g44
sVn_postal
p457
g44
sVapellido
p458
g44
sVnro_asociado
p459
g44
sVid_obra_social
p460
g44
sVnumero
p461
g44
sVsexo
p462
g44
sVdesde_numero_serial
p463
g44
sVn_factura
p464
g44
sVcuit_origen
p465
g44
sVtipo_documento
p466
g44
sVotro_motivo_devolucion
p467
g44
sVhasta_numero_serial
p468
g44
sVlote
p469
g44
sVlocalidad
p470
g44
sVgtin
p471
g44
sVid_programa
p472
g37
stRp473
(dp474
g66
I01
sg67
(lp475
g458
ag446
ag465
ag456
ag463
ag452
ag453
ag448
ag444
ag441
ag471
ag447
ag468
ag445
ag439
ag451
ag460
ag472
ag470
ag469
ag455
ag464
ag457
ag440
ag442
ag459
ag461
ag467
ag449
ag450
ag462
ag454
ag466
ag443
asbasVarg1
p476
g44
sVarg2
p477
g44
stRp478
(dp479
g66
I00
sg67
(lp480
g436
ag476
ag477
asbsssVsendConfirmaTransacc
p481
(dp482
g19
g481
sg8
V
sg20
Nsg21
(dp483
g23
Nsg24
Nsg25
Nsg26
Nssg27
(dp484
S'sendConfirmaTransaccResponse'
p485
g30
(g31
g32
(dp486
Vreturn
p487
g30
(g31
g32
(dp488
g114
g39
sg117
g44
sg115
g116
sVid_transac_asociada
p489
g44
stRp490
(dp491
g66
I00
sg67
(lp492
g117
ag115
ag114
ag489
asbstRp493
(dp494
g66
I00
sg67
(lp495
g487
asbssg83
(dp496
S'sendConfirmaTransacc'
p497
g30
(g31
g32
(dp498
Varg0
p499
g44
sVarg1
p500
g44
sVarg2
p501
(lp502
g30
(g31
g32
(dp503
Vp_ids_transac
p504
g37
sVf_operacion
p505
g44
stRp506
(dp507
g66
I01
sg67
(lp508
g505
ag504
asbastRp509
(dp510
g66
I00
sg67
(lp511
g499
ag500
ag501
asbsssVgetCatalogoElectronicoByGTIN
p512
(dp513
g19
g512
sg8
V
sg20
Nsg21
(dp514
g23
Nsg24
Nsg25
Nsg26
Nssg27
(dp515
S'getCatalogoElectronicoByGTINResponse'
p516
g30
(g31
g32
(dp517
Vreturn
p518
g30
(g31
g32
(dp519
VcantPaginas
p520
g37
sg162
g37
sg163
g39
sVhay_error
p521
g39
sVlist
p522
(lp523
g30
(g31
g32
(dp524
Vdisposicion_trazabilidad
p525
g44
sVfecha_alta
p526
g44
sVgln
p527
g44
sVforma
p528
g44
sVfecha_ult_modificacion
p529
g44
sVunidades
p530
g44
sVgtin
p531
g44
sVdescripcion
p532
g44
sVmonodrogas
p533
(lp534
g30
(g31
g32
(dp535
Vmonodroga
p536
g30
(g31
g32
(dp537
V_c_monodroga
p538
g44
sV_d_monodroga
p539
g44
stRp540
(dp541
g66
I00
sg67
(lp542
g538
ag539
asbstRp543
(dp544
g66
I01
sg67
(lp545
g536
asbasVfecha_baja
p546
g44
sVpresentacion
p547
g44
stRp548
(dp549
g66
I01
sg67
(lp550
g532
ag525
ag526
ag546
ag529
ag528
ag527
ag531
ag533
ag547
ag530
asbasVerrores
p551
(lp552
g74
astRp553
(dp554
g66
I00
sg67
(lp555
g162
ag163
ag520
ag551
ag521
ag522
asbstRp556
(dp557
g66
I00
sg67
(lp558
g518
asbssg83
(dp559
S'getCatalogoElectronicoByGTIN'
p560
g30
(g31
g32
(dp561
Varg0
p562
g44
sVarg1
p563
g44
sVarg2
p564
g44
sVarg3
p565
g44
sVarg4
p566
g44
sVarg5
p567
g44
sVarg6
p568
g37
sVarg7
p569
g37
stRp570
(dp571
g66
I00
sg67
(lp572
g562
ag563
ag564
ag565
ag566
ag567
ag568
ag569
asbsssVsendCancelacTransaccParcial
p573
(dp574
g19
g573
sg8
V
sg20
Nsg21
(dp575
g23
Nsg24
Nsg25
Nsg26
Nssg27
(dp576
S'sendCancelacTransaccParcialResponse'
p577
g30
(g31
g32
(dp578
Vreturn
p579
g118
stRp580
(dp581
g66
I00
sg67
(lp582
g579
asbssg83
(dp583
S'sendCancelacTransaccParcial'
p584
g30
(g31
g32
(dp585
Varg0
p586
g37
sVarg1
p587
g44
sVarg2
p588
g44
sVarg3
p589
g44
sVarg4
p590
g44
stRp591
(dp592
g66
I00
sg67
(lp593
g586
ag587
ag588
ag589
ag590
asbsssVgetTransaccionesNoConfirmadas
p594
(dp595
g19
g594
sg8
V
sg20
Nsg21
(dp596
g23
Nsg24
Nsg25
Nsg26
Nssg27
(dp597
S'getTransaccionesNoConfirmadasResponse'
p598
g30
(g31
g32
(dp599
Vreturn
p600
g77
stRp601
(dp602
g66
I00
sg67
(lp603
g600
asbssg83
(dp604
S'getTransaccionesNoConfirmadas'
p605
g30
(g31
g32
(dp606
Varg8
p607
g44
sVarg9
p608
g44
sVarg0
p609
g44
sVarg1
p610
g44
sVarg2
p611
g37
sVarg3
p612
g44
sVarg4
p613
g44
sVarg5
p614
g44
sVarg6
p615
g44
sVarg7
p616
g37
sVarg12
p617
g44
sVarg13
p618
g44
sVarg10
p619
g44
sVarg11
p620
g44
sVarg16
p621
g37
sVarg17
p622
g44
sVarg14
p623
g44
sVarg15
p624
g44
sVarg18
p625
g44
sVarg19
p626
g37
sVarg20
p627
g37
stRp628
(dp629
g66
I00
sg67
(lp630
g609
ag610
ag611
ag612
ag613
ag614
ag615
ag616
ag607
ag608
ag619
ag620
ag617
ag618
ag623
ag624
ag621
ag622
ag625
ag626
ag627
asbssssS'location'
p631
Vhttp://localhost:9051/trazamed.WebService
p632
sS'service_name'
p633
g6
sS'soap_uri'
p634
Vhttp://schemas.xmlsoap.org/wsdl/soap/
p635
sS'soap_ver'
p636
S'soap11'
p637
sS'transport'
p638
Vhttp://schemas.xmlsoap.org/soap/http
p639
sssssS'version'
p640
S'1.08.8'
p641
sS'namespace'
p642
Vhttp://business.mywebservice.inssjp.com/
p643
sg8
V
s.